Certificate:
    Data:
        Version: 3 (0x2)
        Serial Number: 3 (0x3)
    Signature Algorithm: sha1WithRSAEncryption
        Issuer: C=CA, ST=Alberta, L=Edmonton, O=CBSR, OU=Tempmon Project, CN=Connor/emailAddress=cpeck1@ualberta.ca
        Validity
            Not Before: Jul 22 23:08:02 2013 GMT
            Not After : Jul 20 23:08:02 2023 GMT
        Subject: C=CA, ST=Alberta, O=CBSR, OU=Tempmon Project, CN=tempmon rpi/emailAddress=cpeck1@ualberta.ca
        Subject Public Key Info:
            Public Key Algorithm: rsaEncryption
                Public-Key: (1024 bit)
                Modulus:
                    00:c2:41:d5:43:8d:1f:d0:58:16:85:a9:20:1a:c3:
                    20:d3:46:71:66:96:ed:f7:c1:d8:45:69:ff:42:99:
                    bb:98:86:49:63:bb:35:8c:f8:af:0b:89:63:6e:f4:
                    08:55:fe:a9:1c:31:da:18:4f:4f:cb:ca:ad:7d:dc:
                    29:4f:f9:1a:0a:81:e4:db:09:15:d2:0e:41:26:78:
                    81:0b:a6:10:ab:e7:fc:7a:da:51:60:a1:56:85:a8:
                    47:e2:2b:de:e8:7e:0f:be:98:5b:19:8f:c6:fe:87:
                    d1:35:e2:7a:9e:d4:fc:86:f7:93:6a:cf:ea:7b:31:
                    bd:1f:4d:04:93:7c:77:7a:59
                Exponent: 65537 (0x10001)
        X509v3 extensions:
            X509v3 Basic Constraints: 
                CA:FALSE
            Netscape Comment: 
                OpenSSL Generated Certificate
            X509v3 Subject Key Identifier: 
                52:23:DA:37:BB:C4:D0:70:A3:FC:29:57:DC:05:57:7C:03:61:7E:83
            X509v3 Authority Key Identifier: 
                DirName:/C=CA/ST=Alberta/L=Edmonton/O=CBSR/OU=Tempmon Project/CN=Connor/emailAddress=cpeck1@ualberta.ca
                serial:EB:FF:E5:B0:C5:8F:25:FF

    Signature Algorithm: sha1WithRSAEncryption
         08:9f:74:7f:9d:84:ce:b5:01:01:c6:5b:4d:20:6d:07:8a:2a:
         bb:57:21:d8:9f:24:fb:0b:33:66:73:52:cb:85:1a:89:c5:4e:
         c8:a9:74:a0:10:3d:99:d9:e0:cc:4a:af:d7:78:a3:f3:fe:29:
         7c:51:ed:36:31:82:b5:ef:9c:4b:57:c0:87:52:4b:5d:24:09:
         ce:fd:5b:db:0b:4b:21:6e:54:1c:0f:a7:87:ea:3e:05:3e:2c:
         2e:3b:ab:30:69:ec:d6:d9:ef:54:5b:23:89:60:ab:35:ea:f9:
         70:08:a1:3e:db:e2:6e:97:64:13:7f:a1:28:6c:60:0b:eb:e5:
         96:a8
-----BEGIN CERTIFICATE-----
MIIDlzCCAwCgAwIBAgIBAzANBgkqhkiG9w0BAQUFADCBjzELMAkGA1UEBhMCQ0Ex
EDAOBgNVBAgMB0FsYmVydGExETAPBgNVBAcMCEVkbW9udG9uMQ0wCwYDVQQKDARD
QlNSMRgwFgYDVQQLDA9UZW1wbW9uIFByb2plY3QxDzANBgNVBAMMBkNvbm5vcjEh
MB8GCSqGSIb3DQEJARYSY3BlY2sxQHVhbGJlcnRhLmNhMB4XDTEzMDcyMjIzMDgw
MloXDTIzMDcyMDIzMDgwMlowgYExCzAJBgNVBAYTAkNBMRAwDgYDVQQIDAdBbGJl
cnRhMQ0wCwYDVQQKDARDQlNSMRgwFgYDVQQLDA9UZW1wbW9uIFByb2plY3QxFDAS
BgNVBAMMC3RlbXBtb24gcnBpMSEwHwYJKoZIhvcNAQkBFhJjcGVjazFAdWFsYmVy
dGEuY2EwgZ8wDQYJKoZIhvcNAQEBBQADgY0AMIGJAoGBAMJB1UONH9BYFoWpIBrD
INNGcWaW7ffB2EVp/0KZu5iGSWO7NYz4rwuJY270CFX+qRwx2hhPT8vKrX3cKU/5
GgqB5NsJFdIOQSZ4gQumEKvn/HraUWChVoWoR+Ir3uh+D76YWxmPxv6H0TXiep7U
/Ib3k2rP6nsxvR9NBJN8d3pZAgMBAAGjggENMIIBCTAJBgNVHRMEAjAAMCwGCWCG
SAGG+EIBDQQfFh1PcGVuU1NMIEdlbmVyYXRlZCBDZXJ0aWZpY2F0ZTAdBgNVHQ4E
FgQUUiPaN7vE0HCj/ClX3AVXfANhfoMwga4GA1UdIwSBpjCBo6GBlaSBkjCBjzEL
MAkGA1UEBhMCQ0ExEDAOBgNVBAgMB0FsYmVydGExETAPBgNVBAcMCEVkbW9udG9u
MQ0wCwYDVQQKDARDQlNSMRgwFgYDVQQLDA9UZW1wbW9uIFByb2plY3QxDzANBgNV
BAMMBkNvbm5vcjEhMB8GCSqGSIb3DQEJARYSY3BlY2sxQHVhbGJlcnRhLmNhggkA
6//lsMWPJf8wDQYJKoZIhvcNAQEFBQADgYEACJ90f52EzrUBAcZbTSBtB4oqu1ch
2J8k+wszZnNSy4UaicVOyKl0oBA9mdngzEqv13ij8/4pfFHtNjGCte+cS1fAh1JL
XSQJzv1b2wtLIW5UHA+nh+o+BT4sLjurMGns1tnvVFsjiWCrNer5cAihPtvibpdk
E3+hKGxgC+vllqg=
-----END CERTIFICATE-----
